; ModuleID = 'source-C-CXX/32/1641.c'
source_filename = "source-C-CXX/32/1641.c"
target datalayout = "e-m:e-p270:32:32-p271:32:32-p272:64:64-i64:64-f80:128-n8:16:32:64-S128"
target triple = "x86_64-pc-linux-gnu"

@.str = private unnamed_addr constant [3 x i8] c"%d\00", align 1

; Function Attrs: nounwind sspstrong uwtable
define dso_local i32 @main() local_unnamed_addr #0 {
  %1 = alloca i32, align 4
  %2 = alloca [256 x i8], align 16
  %3 = bitcast i32* %1 to i8*
  call void @llvm.lifetime.start.p0i8(i64 4, i8* nonnull %3) #5
  %4 = call i32 (i8*, ...) @__isoc99_scanf(i8* getelementptr inbounds ([3 x i8], [3 x i8]* @.str, i64 0, i64 0), i32* nonnull %1)
  %5 = getelementptr inbounds [256 x i8], [256 x i8]* %2, i64 0, i64 0
  call void @llvm.lifetime.start.p0i8(i64 256, i8* nonnull %5) #5
  %6 = load i32, i32* %1, align 4, !tbaa !5
  %7 = icmp slt i32 %6, 0
  br i1 %7, label %8, label %9

8:                                                ; preds = %27, %0
  call void @llvm.lifetime.end.p0i8(i64 256, i8* nonnull %5) #5
  call void @llvm.lifetime.end.p0i8(i64 4, i8* nonnull %3) #5
  ret i32 0

9:                                                ; preds = %0, %27
  %10 = phi i32 [ %28, %27 ], [ 0, %0 ]
  %11 = call i32 (i8*, ...) bitcast (i32 (...)* @gets to i32 (i8*, ...)*)(i8* nonnull %5) #5
  br label %12

12:                                               ; preds = %36, %9
  %13 = phi i64 [ 0, %9 ], [ %37, %36 ]
  %14 = getelementptr inbounds [256 x i8], [256 x i8]* %2, i64 0, i64 %13
  %15 = load i8, i8* %14, align 2, !tbaa !9
  switch i8 %15, label %23 [
    i8 65, label %21
    i8 67, label %16
    i8 71, label %17
    i8 84, label %18
    i8 0, label %19
  ]

16:                                               ; preds = %12
  br label %21

17:                                               ; preds = %12
  br label %21

18:                                               ; preds = %12
  br label %21

19:                                               ; preds = %23, %12
  %20 = call i32 @puts(i8* nonnull %5)
  br label %27

21:                                               ; preds = %12, %16, %18, %17
  %22 = phi i8 [ 67, %17 ], [ 65, %18 ], [ 71, %16 ], [ 84, %12 ]
  store i8 %22, i8* %14, align 2, !tbaa !9
  br label %23

23:                                               ; preds = %21, %12
  %24 = or i64 %13, 1
  %25 = getelementptr inbounds [256 x i8], [256 x i8]* %2, i64 0, i64 %24
  %26 = load i8, i8* %25, align 1, !tbaa !9
  switch i8 %26, label %36 [
    i8 65, label %34
    i8 67, label %33
    i8 71, label %32
    i8 84, label %31
    i8 0, label %19
  ]

27:                                               ; preds = %36, %19
  %28 = add nuw nsw i32 %10, 1
  %29 = load i32, i32* %1, align 4, !tbaa !5
  %30 = icmp slt i32 %10, %29
  br i1 %30, label %9, label %8, !llvm.loop !10

31:                                               ; preds = %23
  br label %34

32:                                               ; preds = %23
  br label %34

33:                                               ; preds = %23
  br label %34

34:                                               ; preds = %33, %32, %31, %23
  %35 = phi i8 [ 67, %32 ], [ 65, %31 ], [ 71, %33 ], [ 84, %23 ]
  store i8 %35, i8* %25, align 1, !tbaa !9
  br label %36

36:                                               ; preds = %34, %23
  %37 = add nuw nsw i64 %13, 2
  %38 = icmp eq i64 %37, 256
  br i1 %38, label %27, label %12, !llvm.loop !12
}

; Function Attrs: argmemonly mustprogress nofree nosync nounwind willreturn
declare void @llvm.lifetime.start.p0i8(i64 immarg, i8* nocapture) #1

; Function Attrs: nofree nounwind
declare noundef i32 @__isoc99_scanf(i8* nocapture noundef readonly, ...) local_unnamed_addr #2

declare i32 @gets(...) local_unnamed_addr #3

; Function Attrs: argmemonly mustprogress nofree nosync nounwind willreturn
declare void @llvm.lifetime.end.p0i8(i64 immarg, i8* nocapture) #1

; Function Attrs: nofree nounwind
declare noundef i32 @puts(i8* nocapture noundef readonly) local_unnamed_addr #4


!llvm.module.flags = !{!0, !1, !2, !3}
!llvm.ident = !{!4}

!0 = !{i32 1, !"wchar_size", i32 4}
!1 = !{i32 7, !"PIC Level", i32 2}
!2 = !{i32 7, !"PIE Level", i32 2}
!3 = !{i32 7, !"uwtable", i32 1}
!4 = !{!"clang version 13.0.0"}
!5 = !{!6, !6, i64 0}
!6 = !{!"int", !7, i64 0}
!7 = !{!"omnipotent char", !8, i64 0}
!8 = !{!"Simple C/C++ TBAA"}
!9 = !{!7, !7, i64 0}
!10 = distinct !{!10, !11}
!11 = !{!"llvm.loop.mustprogress"}
!12 = distinct !{!12, !11}
